target datalayout = "e-m:e-p270:32:32-p271:32:32-p272:64:64-i64:64-i128:128-f80:128-n8:16:32:64-S128"
target triple = "x86_64-unknown-linux-gnu"

%"class.smt::case_split_queue" = type { ptr }
%class.svector.86 = type { %class.vector.87 }
%class.vector.87 = type { ptr }
%"struct.(anonymous namespace)::theory_aware_act_lt" = type { ptr, ptr }
%"class.(anonymous namespace)::theory_aware_branching_queue" = type { %"class.smt::case_split_queue", ptr, ptr, %class.map.311, %class.heap.316, %class.int_hashtable, %class.map.319 }
%class.map.311 = type { %class.table2map.312 }
%class.table2map.312 = type { %class.core_hashtable.313 }
%class.core_hashtable.313 = type <{ ptr, i32, i32, i32, [4 x i8] }>
%class.heap.316 = type { %"struct.(anonymous namespace)::theory_aware_act_lt", %class.svector.86, %class.svector.86 }
%class.int_hashtable = type { %class.core_hashtable.base.318, [4 x i8] }
%class.core_hashtable.base.318 = type <{ ptr, i32, i32, i32 }>
%class.map.319 = type { %class.table2map.320 }
%class.table2map.320 = type { %class.core_hashtable.321 }
%class.core_hashtable.321 = type <{ ptr, i32, i32, i32, [4 x i8] }>

; Function Attrs: mustprogress nounwind uwtable
define internal noundef i32 @_ZN4heapIN12_GLOBAL__N_119theory_aware_act_ltEE6parentEi(i32 noundef %i) #4 align 2 {
entry:
  %i.addr = alloca i32, align 4
  store i32 %i, ptr %i.addr, align 4
  %0 = load i32, ptr %i.addr, align 4
  %shr = ashr i32 %0, 1
  ret i32 %shr
}

; Function Attrs: mustprogress uwtable
define internal void @_ZN4heapIN12_GLOBAL__N_119theory_aware_act_ltEE7move_upEi(ptr noundef nonnull align 8 dereferenceable(32) %this, i32 noundef %idx) #5 align 2 {
entry:
  %this.addr = alloca ptr, align 8
  %idx.addr = alloca i32, align 4
  %val = alloca i32, align 4
  %parent_idx = alloca i32, align 4
  store ptr %this, ptr %this.addr, align 8
  store i32 %idx, ptr %idx.addr, align 4
  %this1 = load ptr, ptr %this.addr, align 8
  %m_values = getelementptr inbounds %class.heap.316, ptr %this1, i32 0, i32 1
  %0 = load i32, ptr %idx.addr, align 4
  %call = call noundef nonnull align 4 dereferenceable(4) ptr @_ZN6vectorIiLb0EjEixEj(ptr noundef nonnull align 8 dereferenceable(8) %m_values, i32 noundef %0)
  %1 = load i32, ptr %call, align 4
  store i32 %1, ptr %val, align 4
  br label %while.body

while.body:                                       ; preds = %if.end, %entry
  %2 = load i32, ptr %idx.addr, align 4
  %call2 = call noundef i32 @_ZN4heapIN12_GLOBAL__N_119theory_aware_act_ltEE6parentEi(i32 noundef %2)
  store i32 %call2, ptr %parent_idx, align 4
  %3 = load i32, ptr %parent_idx, align 4
  %cmp = icmp eq i32 %3, 0
  br i1 %cmp, label %if.then, label %lor.lhs.false

lor.lhs.false:                                    ; preds = %while.body
  %4 = load i32, ptr %val, align 4
  %m_values3 = getelementptr inbounds %class.heap.316, ptr %this1, i32 0, i32 1
  %5 = load i32, ptr %parent_idx, align 4
  %call4 = call noundef nonnull align 4 dereferenceable(4) ptr @_ZN6vectorIiLb0EjEixEj(ptr noundef nonnull align 8 dereferenceable(8) %m_values3, i32 noundef %5)
  %6 = load i32, ptr %call4, align 4
  %call5 = call noundef zeroext i1 @_ZNK4heapIN12_GLOBAL__N_119theory_aware_act_ltEE9less_thanEii(ptr noundef nonnull align 8 dereferenceable(32) %this1, i32 noundef %4, i32 noundef %6)
  br i1 %call5, label %if.end, label %if.then

if.then:                                          ; preds = %lor.lhs.false, %while.body
  br label %while.end

if.end:                                           ; preds = %lor.lhs.false
  %m_values6 = getelementptr inbounds %class.heap.316, ptr %this1, i32 0, i32 1
  %7 = load i32, ptr %parent_idx, align 4
  %call7 = call noundef nonnull align 4 dereferenceable(4) ptr @_ZN6vectorIiLb0EjEixEj(ptr noundef nonnull align 8 dereferenceable(8) %m_values6, i32 noundef %7)
  %8 = load i32, ptr %call7, align 4
  %m_values8 = getelementptr inbounds %class.heap.316, ptr %this1, i32 0, i32 1
  %9 = load i32, ptr %idx.addr, align 4
  %call9 = call noundef nonnull align 4 dereferenceable(4) ptr @_ZN6vectorIiLb0EjEixEj(ptr noundef nonnull align 8 dereferenceable(8) %m_values8, i32 noundef %9)
  store i32 %8, ptr %call9, align 4
  %10 = load i32, ptr %idx.addr, align 4
  %m_value2indices = getelementptr inbounds %class.heap.316, ptr %this1, i32 0, i32 2
  %m_values10 = getelementptr inbounds %class.heap.316, ptr %this1, i32 0, i32 1
  %11 = load i32, ptr %idx.addr, align 4
  %call11 = call noundef nonnull align 4 dereferenceable(4) ptr @_ZN6vectorIiLb0EjEixEj(ptr noundef nonnull align 8 dereferenceable(8) %m_values10, i32 noundef %11)
  %12 = load i32, ptr %call11, align 4
  %call12 = call noundef nonnull align 4 dereferenceable(4) ptr @_ZN6vectorIiLb0EjEixEj(ptr noundef nonnull align 8 dereferenceable(8) %m_value2indices, i32 noundef %12)
  store i32 %10, ptr %call12, align 4
  %13 = load i32, ptr %parent_idx, align 4
  store i32 %13, ptr %idx.addr, align 4
  br label %while.body, !llvm.loop !48

while.end:                                        ; preds = %if.then
  %14 = load i32, ptr %val, align 4
  %m_values13 = getelementptr inbounds %class.heap.316, ptr %this1, i32 0, i32 1
  %15 = load i32, ptr %idx.addr, align 4
  %call14 = call noundef nonnull align 4 dereferenceable(4) ptr @_ZN6vectorIiLb0EjEixEj(ptr noundef nonnull align 8 dereferenceable(8) %m_values13, i32 noundef %15)
  store i32 %14, ptr %call14, align 4
  %16 = load i32, ptr %idx.addr, align 4
  %m_value2indices15 = getelementptr inbounds %class.heap.316, ptr %this1, i32 0, i32 2
  %17 = load i32, ptr %val, align 4
  %call16 = call noundef nonnull align 4 dereferenceable(4) ptr @_ZN6vectorIiLb0EjEixEj(ptr noundef nonnull align 8 dereferenceable(8) %m_value2indices15, i32 noundef %17)
  store i32 %16, ptr %call16, align 4
  ret void
}

; Function Attrs: mustprogress nounwind uwtable
define linkonce_odr hidden noundef nonnull align 4 dereferenceable(4) ptr @_ZN6vectorIiLb0EjEixEj(ptr noundef nonnull align 8 dereferenceable(8) %this, i32 noundef %idx) #4 comdat align 2 {
entry:
  %this.addr = alloca ptr, align 8
  %idx.addr = alloca i32, align 4
  store ptr %this, ptr %this.addr, align 8
  store i32 %idx, ptr %idx.addr, align 4
  %this1 = load ptr, ptr %this.addr, align 8
  %m_data = getelementptr inbounds %class.vector.87, ptr %this1, i32 0, i32 0
  %0 = load ptr, ptr %m_data, align 8
  %1 = load i32, ptr %idx.addr, align 4
  %idxprom = zext i32 %1 to i64
  %arrayidx = getelementptr inbounds i32, ptr %0, i64 %idxprom
  ret ptr %arrayidx
}

; Function Attrs: mustprogress nounwind uwtable
define linkonce_odr hidden noundef nonnull align 4 dereferenceable(4) ptr @_ZNK6vectorIiLb0EjEixEj(ptr noundef nonnull align 8 dereferenceable(8) %this, i32 noundef %idx) #4 comdat align 2 {
entry:
  %this.addr = alloca ptr, align 8
  %idx.addr = alloca i32, align 4
  store ptr %this, ptr %this.addr, align 8
  store i32 %idx, ptr %idx.addr, align 4
  %this1 = load ptr, ptr %this.addr, align 8
  %m_data = getelementptr inbounds %class.vector.87, ptr %this1, i32 0, i32 0
  %0 = load ptr, ptr %m_data, align 8
  %1 = load i32, ptr %idx.addr, align 4
  %idxprom = zext i32 %1 to i64
  %arrayidx = getelementptr inbounds i32, ptr %0, i64 %idxprom
  ret ptr %arrayidx
}

; Function Attrs: mustprogress nounwind uwtable
define linkonce_odr hidden noundef i32 @_ZNK6vectorIiLb0EjE4sizeEv(ptr noundef nonnull align 8 dereferenceable(8) %this) #4 comdat align 2 {
entry:
  %retval = alloca i32, align 4
  %this.addr = alloca ptr, align 8
  store ptr %this, ptr %this.addr, align 8
  %this1 = load ptr, ptr %this.addr, align 8
  %m_data = getelementptr inbounds %class.vector.87, ptr %this1, i32 0, i32 0
  %0 = load ptr, ptr %m_data, align 8
  %cmp = icmp eq ptr %0, null
  br i1 %cmp, label %if.then, label %if.end

if.then:                                          ; preds = %entry
  store i32 0, ptr %retval, align 4
  br label %return

if.end:                                           ; preds = %entry
  %m_data2 = getelementptr inbounds %class.vector.87, ptr %this1, i32 0, i32 0
  %1 = load ptr, ptr %m_data2, align 8
  %arrayidx = getelementptr inbounds i32, ptr %1, i64 -1
  %2 = load i32, ptr %arrayidx, align 4
  store i32 %2, ptr %retval, align 4
  br label %return

return:                                           ; preds = %if.end, %if.then
  %3 = load i32, ptr %retval, align 4
  ret i32 %3
}

; Function Attrs: mustprogress uwtable
define internal void @_ZN4heapIN12_GLOBAL__N_119theory_aware_act_ltEE9decreasedEi(ptr noundef nonnull align 8 dereferenceable(32) %this, i32 noundef %val) #5 align 2 {
entry:
  %this.addr = alloca ptr, align 8
  %val.addr = alloca i32, align 4
  store ptr %this, ptr %this.addr, align 8
  store i32 %val, ptr %val.addr, align 4
  %this1 = load ptr, ptr %this.addr, align 8
  %m_value2indices = getelementptr inbounds %class.heap.316, ptr %this1, i32 0, i32 2
  %0 = load i32, ptr %val.addr, align 4
  %call = call noundef nonnull align 4 dereferenceable(4) ptr @_ZN6vectorIiLb0EjEixEj(ptr noundef nonnull align 8 dereferenceable(8) %m_value2indices, i32 noundef %0)
  %1 = load i32, ptr %call, align 4
  call void @_ZN4heapIN12_GLOBAL__N_119theory_aware_act_ltEE7move_upEi(ptr noundef nonnull align 8 dereferenceable(32) %this1, i32 noundef %1)
  ret void
}

; Function Attrs: mustprogress nounwind uwtable
define internal noundef zeroext i1 @_ZNK4heapIN12_GLOBAL__N_119theory_aware_act_ltEE8containsEi(ptr noundef nonnull align 8 dereferenceable(32) %this, i32 noundef %val) #4 align 2 {
entry:
  %this.addr = alloca ptr, align 8
  %val.addr = alloca i32, align 4
  store ptr %this, ptr %this.addr, align 8
  store i32 %val, ptr %val.addr, align 4
  %this1 = load ptr, ptr %this.addr, align 8
  %0 = load i32, ptr %val.addr, align 4
  %m_value2indices = getelementptr inbounds %class.heap.316, ptr %this1, i32 0, i32 2
  %call = call noundef i32 @_ZNK6vectorIiLb0EjE4sizeEv(ptr noundef nonnull align 8 dereferenceable(8) %m_value2indices)
  %cmp = icmp slt i32 %0, %call
  br i1 %cmp, label %land.rhs, label %land.end

land.rhs:                                         ; preds = %entry
  %m_value2indices2 = getelementptr inbounds %class.heap.316, ptr %this1, i32 0, i32 2
  %1 = load i32, ptr %val.addr, align 4
  %call3 = call noundef nonnull align 4 dereferenceable(4) ptr @_ZNK6vectorIiLb0EjEixEj(ptr noundef nonnull align 8 dereferenceable(8) %m_value2indices2, i32 noundef %1)
  %2 = load i32, ptr %call3, align 4
  %cmp4 = icmp ne i32 %2, 0
  br label %land.end

land.end:                                         ; preds = %land.rhs, %entry
  %3 = phi i1 [ false, %entry ], [ %cmp4, %land.rhs ]
  ret i1 %3
}

; Function Attrs: mustprogress uwtable
define internal void @_ZN12_GLOBAL__N_128theory_aware_branching_queue21activity_increased_ehEj(ptr noundef nonnull align 8 dereferenceable(128) %this, i32 noundef %v) unnamed_addr #5 align 2 {
entry:
  %this.addr = alloca ptr, align 8
  %v.addr = alloca i32, align 4
  store ptr %this, ptr %this.addr, align 8
  store i32 %v, ptr %v.addr, align 4
  %this1 = load ptr, ptr %this.addr, align 8
  %m_queue = getelementptr inbounds %"class.(anonymous namespace)::theory_aware_branching_queue", ptr %this1, i32 0, i32 4
  %0 = load i32, ptr %v.addr, align 4
  %call = call noundef zeroext i1 @_ZNK4heapIN12_GLOBAL__N_119theory_aware_act_ltEE8containsEi(ptr noundef nonnull align 8 dereferenceable(32) %m_queue, i32 noundef %0)
  br i1 %call, label %if.then, label %if.end

if.then:                                          ; preds = %entry
  %m_queue2 = getelementptr inbounds %"class.(anonymous namespace)::theory_aware_branching_queue", ptr %this1, i32 0, i32 4
  %1 = load i32, ptr %v.addr, align 4
  call void @_ZN4heapIN12_GLOBAL__N_119theory_aware_act_ltEE9decreasedEi(ptr noundef nonnull align 8 dereferenceable(32) %m_queue2, i32 noundef %1)
  br label %if.end

if.end:                                           ; preds = %if.then, %entry
  ret void
}