; Function Attrs: mustprogress nofree norecurse nosync nounwind memory(readwrite, inaccessiblemem: none) uwtable
define internal void @_ZN12_GLOBAL__N_128theory_aware_branching_queue21activity_increased_ehEj(ptr nocapture noundef nonnull readonly align 8 dereferenceable(128) %this, i32 noundef %v) unnamed_addr #4 align 2 {
entry:
  %m_queue = getelementptr inbounds i8, ptr %this, i64 48
  %0 = getelementptr inbounds i8, ptr %this, i64 72
  %m_queue.val = load ptr, ptr %0, align 8
  %cmp.i.i = icmp eq ptr %m_queue.val, null
  br i1 %cmp.i.i, label %_ZNK6vectorIiLb0EjE4sizeEv.exit.i, label %if.end.i.i

if.end.i.i:                                       ; preds = %entry
  %arrayidx.i.i = getelementptr inbounds i8, ptr %m_queue.val, i64 -4
  %1 = load i32, ptr %arrayidx.i.i, align 4
  br label %_ZNK6vectorIiLb0EjE4sizeEv.exit.i

_ZNK6vectorIiLb0EjE4sizeEv.exit.i:                ; preds = %if.end.i.i, %entry
  %retval.0.i.i = phi i32 [ %1, %if.end.i.i ], [ 0, %entry ]
  %cmp.i = icmp sgt i32 %retval.0.i.i, %v
  br i1 %cmp.i, label %_ZNK4heapIN12_GLOBAL__N_119theory_aware_act_ltEE8containsEi.exit, label %if.end

_ZNK4heapIN12_GLOBAL__N_119theory_aware_act_ltEE8containsEi.exit: ; preds = %_ZNK6vectorIiLb0EjE4sizeEv.exit.i
  %idxprom.i.i = zext i32 %v to i64
  %arrayidx.i2.i = getelementptr inbounds i32, ptr %m_queue.val, i64 %idxprom.i.i
  %2 = load i32, ptr %arrayidx.i2.i, align 4
  %cmp4.i.not = icmp eq i32 %2, 0
  br i1 %cmp4.i.not, label %if.end, label %if.then

if.then:                                          ; preds = %_ZNK4heapIN12_GLOBAL__N_119theory_aware_act_ltEE8containsEi.exit
  %m_values.i.i = getelementptr inbounds i8, ptr %this, i64 64
  %3 = load ptr, ptr %m_values.i.i, align 8
  %idxprom.i.i.i = zext i32 %2 to i64
  %arrayidx.i.i.i = getelementptr inbounds i32, ptr %3, i64 %idxprom.i.i.i
  %4 = load i32, ptr %arrayidx.i.i.i, align 4
  %cmp29.i.i = icmp eq i32 %2, 1
  br i1 %cmp29.i.i, label %_ZN4heapIN12_GLOBAL__N_119theory_aware_act_ltEE9decreasedEi.exit, label %lor.lhs.false.lr.ph.i.i

lor.lhs.false.lr.ph.i.i:                          ; preds = %if.then
  %5 = getelementptr inbounds i8, ptr %this, i64 56
  br label %lor.lhs.false.i.i

lor.lhs.false.i.i:                                ; preds = %if.end.i.i4, %lor.lhs.false.lr.ph.i.i
  %idx.addr.030.i.i = phi i32 [ %2, %lor.lhs.false.lr.ph.i.i ], [ %shr.i31.i.i, %if.end.i.i4 ]
  %shr.i31.i.i = ashr i32 %idx.addr.030.i.i, 1
  %6 = load ptr, ptr %m_values.i.i, align 8
  %idxprom.i14.i.i = zext i32 %shr.i31.i.i to i64
  %arrayidx.i15.i.i = getelementptr inbounds i32, ptr %6, i64 %idxprom.i14.i.i
  %7 = load i32, ptr %arrayidx.i15.i.i, align 4
  %this.val.i.i = load ptr, ptr %m_queue, align 8
  %this.val12.i.i = load ptr, ptr %5, align 8
  %this.val12.val.i.i = load ptr, ptr %this.val12.i.i, align 8
  %8 = getelementptr i8, ptr %this.val12.i.i, i64 8
  %this.val12.val13.i.i = load i32, ptr %8, align 8
  %call5.i.i = tail call fastcc noundef zeroext i1 @_ZNK4heapIN12_GLOBAL__N_119theory_aware_act_ltEE9less_thanEii(ptr %this.val.i.i, ptr %this.val12.val.i.i, i32 %this.val12.val13.i.i, i32 noundef %4, i32 noundef %7)
  %idxprom.i18.i.i = zext i32 %idx.addr.030.i.i to i64
  br i1 %call5.i.i, label %if.end.i.i4, label %_ZN4heapIN12_GLOBAL__N_119theory_aware_act_ltEE9decreasedEi.exit

if.end.i.i4:                                      ; preds = %lor.lhs.false.i.i
  %arrayidx.i19.i.i = getelementptr inbounds i32, ptr %6, i64 %idxprom.i18.i.i
  store i32 %7, ptr %arrayidx.i19.i.i, align 4
  %9 = load ptr, ptr %m_values.i.i, align 8
  %arrayidx.i21.i.i = getelementptr inbounds i32, ptr %9, i64 %idxprom.i18.i.i
  %10 = load i32, ptr %arrayidx.i21.i.i, align 4
  %11 = load ptr, ptr %0, align 8
  %idxprom.i22.i.i = zext i32 %10 to i64
  %arrayidx.i23.i.i = getelementptr inbounds i32, ptr %11, i64 %idxprom.i22.i.i
  store i32 %idx.addr.030.i.i, ptr %arrayidx.i23.i.i, align 4
  %cmp.i.i5 = icmp ult i32 %shr.i31.i.i, 2
  br i1 %cmp.i.i5, label %if.end.while.end.loopexit_crit_edge.i.i, label %lor.lhs.false.i.i, !llvm.loop !39

if.end.while.end.loopexit_crit_edge.i.i:          ; preds = %if.end.i.i4
  %.pre.pre.i.i = load ptr, ptr %m_values.i.i, align 8
  br label %_ZN4heapIN12_GLOBAL__N_119theory_aware_act_ltEE9decreasedEi.exit

_ZN4heapIN12_GLOBAL__N_119theory_aware_act_ltEE9decreasedEi.exit: ; preds = %lor.lhs.false.i.i, %if.then, %if.end.while.end.loopexit_crit_edge.i.i
  %idxprom.i24.pre-phi.i.i = phi i64 [ 1, %if.then ], [ %idxprom.i14.i.i, %if.end.while.end.loopexit_crit_edge.i.i ], [ %idxprom.i18.i.i, %lor.lhs.false.i.i ]
  %12 = phi ptr [ %3, %if.then ], [ %.pre.pre.i.i, %if.end.while.end.loopexit_crit_edge.i.i ], [ %6, %lor.lhs.false.i.i ]
  %idx.addr.0.lcssa.i.i = phi i32 [ 1, %if.then ], [ %shr.i31.i.i, %if.end.while.end.loopexit_crit_edge.i.i ], [ %idx.addr.030.i.i, %lor.lhs.false.i.i ]
  %arrayidx.i25.i.i = getelementptr inbounds i32, ptr %12, i64 %idxprom.i24.pre-phi.i.i
  store i32 %4, ptr %arrayidx.i25.i.i, align 4
  %13 = load ptr, ptr %0, align 8
  %idxprom.i26.i.i = zext i32 %4 to i64
  %arrayidx.i27.i.i = getelementptr inbounds i32, ptr %13, i64 %idxprom.i26.i.i
  store i32 %idx.addr.0.lcssa.i.i, ptr %arrayidx.i27.i.i, align 4
  br label %if.end

if.end:                                           ; preds = %_ZNK6vectorIiLb0EjE4sizeEv.exit.i, %_ZN4heapIN12_GLOBAL__N_119theory_aware_act_ltEE9decreasedEi.exit, %_ZNK4heapIN12_GLOBAL__N_119theory_aware_act_ltEE8containsEi.exit
  ret void
}